; Function Attrs: mustprogress nofree norecurse nosync nounwind willreturn memory(write, argmem: readwrite, inaccessiblemem: none) uwtable
define internal noundef i32 @H5P__dxfr_io_xfer_mode_enc(ptr nocapture noundef readonly %0, ptr nocapture noundef %1, ptr nocapture noundef %2) #4 {
  %4 = load ptr, ptr %1, align 8
  %.not = icmp eq ptr %4, null
  br i1 %.not, label %9, label %5

5:                                                ; preds = %3
  %6 = load i32, ptr %0, align 4
  %7 = trunc i32 %6 to i8
  %8 = getelementptr inbounds i8, ptr %4, i64 1
  store ptr %8, ptr %1, align 8
  store i8 %7, ptr %4, align 1
  br label %9

9:                                                ; preds = %5, %3
  %10 = load i64, ptr %2, align 8
  %11 = add i64 %10, 1
  store i64 %11, ptr %2, align 8
  ret i32 0
}